target datalayout = "e-m:e-p270:32:32-p271:32:32-p272:64:64-i64:64-i128:128-f80:128-n8:16:32:64-S128"
target triple = "x86_64-pc-linux-gnu"

%struct.jpeg_compress_struct = type { ptr, ptr, ptr, ptr, i32, i32, ptr, i32, i32, i32, i32, double, i32, i32, i32, ptr, [4 x ptr], [4 x ptr], [4 x ptr], [16 x i8], [16 x i8], [16 x i8], i32, ptr, i32, i32, i32, i32, i32, i32, i32, i32, i32, i8, i8, i8, i16, i16, i32, i32, i32, i32, i32, i32, i32, [4 x ptr], i32, i32, i32, [10 x i32], i32, i32, i32, i32, ptr, ptr, ptr, ptr, ptr, ptr, ptr, ptr, ptr, ptr, i32 }
%struct.jpeg_comp_master = type { ptr, ptr, ptr, i32, i32, i32 }
%struct.my_main_controller = type { %struct.jpeg_c_main_controller, i32, i32, i32, i32, [10 x ptr] }
%struct.jpeg_c_main_controller = type { ptr, ptr, ptr, ptr }
%struct.jpeg_c_prep_controller = type { ptr, ptr, ptr, ptr }
%struct.jpeg_c_coef_controller = type { ptr, ptr, ptr, ptr }

; Function Attrs: nounwind uwtable
define internal void @process_data_simple_main(ptr noundef %0, ptr noundef %1, ptr noundef %2, i32 noundef %3) #0 {
  %5 = alloca ptr, align 8
  %6 = alloca ptr, align 8
  %7 = alloca ptr, align 8
  %8 = alloca i32, align 4
  %9 = alloca ptr, align 8
  %10 = alloca i32, align 4
  %11 = alloca i32, align 4
  store ptr %0, ptr %5, align 8, !tbaa !3
  store ptr %1, ptr %6, align 8, !tbaa !52
  store ptr %2, ptr %7, align 8, !tbaa !60
  store i32 %3, ptr %8, align 4, !tbaa !8
  call void @llvm.lifetime.start.p0(i64 8, ptr %9) #3
  %12 = load ptr, ptr %5, align 8, !tbaa !3
  %13 = getelementptr inbounds nuw %struct.jpeg_compress_struct, ptr %12, i32 0, i32 55
  %14 = load ptr, ptr %13, align 8, !tbaa !41
  store ptr %14, ptr %9, align 8, !tbaa !40
  call void @llvm.lifetime.start.p0(i64 4, ptr %10) #3
  %15 = load ptr, ptr %5, align 8, !tbaa !3
  %16 = getelementptr inbounds nuw %struct.jpeg_compress_struct, ptr %15, i32 0, i32 54
  %17 = load ptr, ptr %16, align 8, !tbaa !10
  %18 = getelementptr inbounds nuw %struct.jpeg_comp_master, ptr %17, i32 0, i32 5
  %19 = load i32, ptr %18, align 8, !tbaa !27
  %20 = icmp ne i32 %19, 0
  %21 = select i1 %20, i32 1, i32 8
  store i32 %21, ptr %10, align 4, !tbaa !8
  br label %22

22:                                               ; preds = %94, %4
  %23 = load ptr, ptr %9, align 8, !tbaa !40
  %24 = getelementptr inbounds nuw %struct.my_main_controller, ptr %23, i32 0, i32 1
  %25 = load i32, ptr %24, align 8, !tbaa !55
  %26 = load ptr, ptr %5, align 8, !tbaa !3
  %27 = getelementptr inbounds nuw %struct.jpeg_compress_struct, ptr %26, i32 0, i32 43
  %28 = load i32, ptr %27, align 8, !tbaa !62
  %29 = icmp ult i32 %25, %28
  br i1 %29, label %30, label %101

30:                                               ; preds = %22
  %31 = load ptr, ptr %9, align 8, !tbaa !40
  %32 = getelementptr inbounds nuw %struct.my_main_controller, ptr %31, i32 0, i32 2
  %33 = load i32, ptr %32, align 4, !tbaa !56
  %34 = load i32, ptr %10, align 4, !tbaa !8
  %35 = icmp ult i32 %33, %34
  br i1 %35, label %36, label %52

36:                                               ; preds = %30
  %37 = load ptr, ptr %5, align 8, !tbaa !3
  %38 = getelementptr inbounds nuw %struct.jpeg_compress_struct, ptr %37, i32 0, i32 56
  %39 = load ptr, ptr %38, align 8, !tbaa !63
  %40 = getelementptr inbounds nuw %struct.jpeg_c_prep_controller, ptr %39, i32 0, i32 1
  %41 = load ptr, ptr %40, align 8, !tbaa !64
  %42 = load ptr, ptr %5, align 8, !tbaa !3
  %43 = load ptr, ptr %6, align 8, !tbaa !52
  %44 = load ptr, ptr %7, align 8, !tbaa !60
  %45 = load i32, ptr %8, align 4, !tbaa !8
  %46 = load ptr, ptr %9, align 8, !tbaa !40
  %47 = getelementptr inbounds nuw %struct.my_main_controller, ptr %46, i32 0, i32 5
  %48 = getelementptr inbounds [10 x ptr], ptr %47, i64 0, i64 0
  %49 = load ptr, ptr %9, align 8, !tbaa !40
  %50 = getelementptr inbounds nuw %struct.my_main_controller, ptr %49, i32 0, i32 2
  %51 = load i32, ptr %10, align 4, !tbaa !8
  call void %41(ptr noundef %42, ptr noundef %43, ptr noundef %44, i32 noundef %45, ptr noundef %48, ptr noundef %50, i32 noundef %51)
  br label %52

52:                                               ; preds = %36, %30
  %53 = load ptr, ptr %9, align 8, !tbaa !40
  %54 = getelementptr inbounds nuw %struct.my_main_controller, ptr %53, i32 0, i32 2
  %55 = load i32, ptr %54, align 4, !tbaa !56
  %56 = load i32, ptr %10, align 4, !tbaa !8
  %57 = icmp ne i32 %55, %56
  br i1 %57, label %58, label %59

58:                                               ; preds = %52
  store i32 1, ptr %11, align 4
  br label %102

59:                                               ; preds = %52
  %60 = load ptr, ptr %5, align 8, !tbaa !3
  %61 = getelementptr inbounds nuw %struct.jpeg_compress_struct, ptr %60, i32 0, i32 57
  %62 = load ptr, ptr %61, align 8, !tbaa !66
  %63 = getelementptr inbounds nuw %struct.jpeg_c_coef_controller, ptr %62, i32 0, i32 1
  %64 = load ptr, ptr %63, align 8, !tbaa !67
  %65 = load ptr, ptr %5, align 8, !tbaa !3
  %66 = load ptr, ptr %9, align 8, !tbaa !40
  %67 = getelementptr inbounds nuw %struct.my_main_controller, ptr %66, i32 0, i32 5
  %68 = getelementptr inbounds [10 x ptr], ptr %67, i64 0, i64 0
  %69 = call i32 %64(ptr noundef %65, ptr noundef %68)
  %70 = icmp ne i32 %69, 0
  br i1 %70, label %83, label %71

71:                                               ; preds = %59
  %72 = load ptr, ptr %9, align 8, !tbaa !40
  %73 = getelementptr inbounds nuw %struct.my_main_controller, ptr %72, i32 0, i32 3
  %74 = load i32, ptr %73, align 8, !tbaa !57
  %75 = icmp ne i32 %74, 0
  br i1 %75, label %82, label %76

76:                                               ; preds = %71
  %77 = load ptr, ptr %7, align 8, !tbaa !60
  %78 = load i32, ptr %77, align 4, !tbaa !8
  %79 = add i32 %78, -1
  store i32 %79, ptr %77, align 4, !tbaa !8
  %80 = load ptr, ptr %9, align 8, !tbaa !40
  %81 = getelementptr inbounds nuw %struct.my_main_controller, ptr %80, i32 0, i32 3
  store i32 1, ptr %81, align 8, !tbaa !57
  br label %82

82:                                               ; preds = %76, %71
  store i32 1, ptr %11, align 4
  br label %102

83:                                               ; preds = %59
  %84 = load ptr, ptr %9, align 8, !tbaa !40
  %85 = getelementptr inbounds nuw %struct.my_main_controller, ptr %84, i32 0, i32 3
  %86 = load i32, ptr %85, align 8, !tbaa !57
  %87 = icmp ne i32 %86, 0
  br i1 %87, label %88, label %94

88:                                               ; preds = %83
  %89 = load ptr, ptr %7, align 8, !tbaa !60
  %90 = load i32, ptr %89, align 4, !tbaa !8
  %91 = add i32 %90, 1
  store i32 %91, ptr %89, align 4, !tbaa !8
  %92 = load ptr, ptr %9, align 8, !tbaa !40
  %93 = getelementptr inbounds nuw %struct.my_main_controller, ptr %92, i32 0, i32 3
  store i32 0, ptr %93, align 8, !tbaa !57
  br label %94

94:                                               ; preds = %88, %83
  %95 = load ptr, ptr %9, align 8, !tbaa !40
  %96 = getelementptr inbounds nuw %struct.my_main_controller, ptr %95, i32 0, i32 2
  store i32 0, ptr %96, align 4, !tbaa !56
  %97 = load ptr, ptr %9, align 8, !tbaa !40
  %98 = getelementptr inbounds nuw %struct.my_main_controller, ptr %97, i32 0, i32 1
  %99 = load i32, ptr %98, align 8, !tbaa !55
  %100 = add i32 %99, 1
  store i32 %100, ptr %98, align 8, !tbaa !55
  br label %22, !llvm.loop !69

101:                                              ; preds = %22
  store i32 0, ptr %11, align 4
  br label %102

102:                                              ; preds = %101, %82, %58
  call void @llvm.lifetime.end.p0(i64 4, ptr %10) #3
  call void @llvm.lifetime.end.p0(i64 8, ptr %9) #3
  %103 = load i32, ptr %11, align 4
  switch i32 %103, label %105 [
    i32 0, label %104
    i32 1, label %104
  ]

104:                                              ; preds = %102, %102
  ret void

105:                                              ; preds = %102
  unreachable
}