; Function Attrs: nounwind uwtable
define internal void @process_data_simple_main(ptr noundef %0, ptr noundef %1, ptr noundef %2, i32 noundef %3) #0 {
  %5 = getelementptr inbounds nuw i8, ptr %0, i64 440
  %6 = load ptr, ptr %5, align 8, !tbaa !37
  %7 = getelementptr inbounds nuw i8, ptr %0, i64 432
  %8 = load ptr, ptr %7, align 8, !tbaa !3
  %9 = getelementptr inbounds nuw i8, ptr %8, i64 32
  %10 = load i32, ptr %9, align 8, !tbaa !24
  %.not = icmp eq i32 %10, 0
  %11 = select i1 %.not, i32 8, i32 1
  %12 = getelementptr inbounds nuw i8, ptr %6, i64 32
  %13 = getelementptr inbounds nuw i8, ptr %0, i64 320
  %14 = load i32, ptr %12, align 8, !tbaa !51
  %15 = load i32, ptr %13, align 8, !tbaa !56
  %16 = icmp ult i32 %14, %15
  br i1 %16, label %.lr.ph, label %.loopexit

.lr.ph:                                           ; preds = %4
  %17 = getelementptr inbounds nuw i8, ptr %6, i64 36
  %18 = getelementptr inbounds nuw i8, ptr %0, i64 448
  %19 = getelementptr inbounds nuw i8, ptr %6, i64 48
  %20 = getelementptr inbounds nuw i8, ptr %0, i64 456
  %21 = getelementptr inbounds nuw i8, ptr %6, i64 40
  %.pre = load i32, ptr %17, align 4, !tbaa !52
  br label %22

22:                                               ; preds = %.lr.ph, %45
  %23 = phi i32 [ %.pre, %.lr.ph ], [ 0, %45 ]
  %24 = icmp ult i32 %23, %11
  br i1 %24, label %25, label %29

25:                                               ; preds = %22
  %26 = load ptr, ptr %18, align 8, !tbaa !57
  %27 = getelementptr inbounds nuw i8, ptr %26, i64 8
  %28 = load ptr, ptr %27, align 8, !tbaa !58
  tail call void %28(ptr noundef nonnull %0, ptr noundef %1, ptr noundef %2, i32 noundef %3, ptr noundef nonnull %19, ptr noundef nonnull %17, i32 noundef %11) #2
  %.pre31 = load i32, ptr %17, align 4, !tbaa !52
  br label %29

29:                                               ; preds = %25, %22
  %30 = phi i32 [ %.pre31, %25 ], [ %23, %22 ]
  %.not26 = icmp eq i32 %30, %11
  br i1 %.not26, label %31, label %.loopexit

31:                                               ; preds = %29
  %32 = load ptr, ptr %20, align 8, !tbaa !60
  %33 = getelementptr inbounds nuw i8, ptr %32, i64 8
  %34 = load ptr, ptr %33, align 8, !tbaa !61
  %35 = tail call i32 %34(ptr noundef nonnull %0, ptr noundef nonnull %19) #2
  %.not27 = icmp eq i32 %35, 0
  %36 = load i32, ptr %21, align 8, !tbaa !53
  %.not28 = icmp eq i32 %36, 0
  br i1 %.not27, label %37, label %41

37:                                               ; preds = %31
  br i1 %.not28, label %38, label %.loopexit

38:                                               ; preds = %37
  %39 = load i32, ptr %2, align 4, !tbaa !63
  %40 = add i32 %39, -1
  store i32 %40, ptr %2, align 4, !tbaa !63
  store i32 1, ptr %21, align 8, !tbaa !53
  br label %.loopexit

41:                                               ; preds = %31
  br i1 %.not28, label %45, label %42

42:                                               ; preds = %41
  %43 = load i32, ptr %2, align 4, !tbaa !63
  %44 = add i32 %43, 1
  store i32 %44, ptr %2, align 4, !tbaa !63
  store i32 0, ptr %21, align 8, !tbaa !53
  br label %45

45:                                               ; preds = %42, %41
  store i32 0, ptr %17, align 4, !tbaa !52
  %46 = load i32, ptr %12, align 8, !tbaa !51
  %47 = add i32 %46, 1
  store i32 %47, ptr %12, align 8, !tbaa !51
  %48 = load i32, ptr %13, align 8, !tbaa !56
  %49 = icmp ult i32 %47, %48
  br i1 %49, label %22, label %.loopexit, !llvm.loop !64

.loopexit:                                        ; preds = %29, %45, %4, %37, %38
  ret void
}